target datalayout = "e-m:e-p270:32:32-p271:32:32-p272:64:64-i64:64-i128:128-f80:128-n8:16:32:64-S128"
target triple = "x86_64-unknown-linux-gnu"

%struct.QTailQLink = type { ptr, ptr }
%struct.qemu_plugin_state = type { %union.anon.0, [9 x %struct.anon], ptr, ptr, [1 x i64], %struct.QemuRecMutex, %struct.qht }
%union.anon.0 = type { %struct.QTailQLink }
%struct.anon = type { ptr }
%struct.QemuRecMutex = type { %struct.QemuMutex }
%struct.QemuMutex = type { %union.pthread_mutex_t, i8 }
%union.pthread_mutex_t = type { %struct.__pthread_mutex_s }
%struct.__pthread_mutex_s = type { i32, i32, i32, i32, i32, i16, i16, %struct.__pthread_internal_list }
%struct.__pthread_internal_list = type { ptr, ptr }
%struct.qht = type { ptr, ptr, %struct.QemuMutex, i32 }

@plugin = external global %struct.qemu_plugin_state, align 8
@.str.3 = private unnamed_addr constant [25 x i8] c"../qemu/plugins/loader.c\00", align 1
@__func__.qemu_plugin_add_dyn_cb_arr = private unnamed_addr constant [27 x i8] c"qemu_plugin_add_dyn_cb_arr\00", align 1
@.str.4 = private unnamed_addr constant [9 x i8] c"inserted\00", align 1

; Function Attrs: nounwind sspstrong uwtable
define internal i32 @rol32(i32 noundef %word, i32 noundef %shift) #0 {
entry:
  %word.addr = alloca i32, align 4
  %shift.addr = alloca i32, align 4
  store i32 %word, ptr %word.addr, align 4
  store i32 %shift, ptr %shift.addr, align 4
  %0 = load i32, ptr %word.addr, align 4
  %1 = load i32, ptr %shift.addr, align 4
  %and = and i32 %1, 31
  %shl = shl i32 %0, %and
  %2 = load i32, ptr %word.addr, align 4
  %3 = load i32, ptr %shift.addr, align 4
  %sub = sub i32 0, %3
  %and1 = and i32 %sub, 31
  %shr = lshr i32 %2, %and1
  %or = or i32 %shl, %shr
  ret i32 %or
}

; Function Attrs: nounwind sspstrong uwtable
define internal i32 @qemu_xxhash8(i64 noundef %ab, i64 noundef %cd, i64 noundef %ef, i32 noundef %g, i32 noundef %h) #0 {
entry:
  %ab.addr = alloca i64, align 8
  %cd.addr = alloca i64, align 8
  %ef.addr = alloca i64, align 8
  %g.addr = alloca i32, align 4
  %h.addr = alloca i32, align 4
  %v1 = alloca i32, align 4
  %v2 = alloca i32, align 4
  %v3 = alloca i32, align 4
  %v4 = alloca i32, align 4
  %a = alloca i32, align 4
  %b = alloca i32, align 4
  %c = alloca i32, align 4
  %d = alloca i32, align 4
  %e = alloca i32, align 4
  %f = alloca i32, align 4
  %h32 = alloca i32, align 4
  store i64 %ab, ptr %ab.addr, align 8
  store i64 %cd, ptr %cd.addr, align 8
  store i64 %ef, ptr %ef.addr, align 8
  store i32 %g, ptr %g.addr, align 4
  store i32 %h, ptr %h.addr, align 4
  store i32 606290985, ptr %v1, align 4
  store i32 -2048144776, ptr %v2, align 4
  store i32 1, ptr %v3, align 4
  store i32 1640531536, ptr %v4, align 4
  %0 = load i64, ptr %ab.addr, align 8
  %conv = trunc i64 %0 to i32
  store i32 %conv, ptr %a, align 4
  %1 = load i64, ptr %ab.addr, align 8
  %shr = lshr i64 %1, 32
  %conv1 = trunc i64 %shr to i32
  store i32 %conv1, ptr %b, align 4
  %2 = load i64, ptr %cd.addr, align 8
  %conv2 = trunc i64 %2 to i32
  store i32 %conv2, ptr %c, align 4
  %3 = load i64, ptr %cd.addr, align 8
  %shr3 = lshr i64 %3, 32
  %conv4 = trunc i64 %shr3 to i32
  store i32 %conv4, ptr %d, align 4
  %4 = load i64, ptr %ef.addr, align 8
  %conv5 = trunc i64 %4 to i32
  store i32 %conv5, ptr %e, align 4
  %5 = load i64, ptr %ef.addr, align 8
  %shr6 = lshr i64 %5, 32
  %conv7 = trunc i64 %shr6 to i32
  store i32 %conv7, ptr %f, align 4
  %6 = load i32, ptr %a, align 4
  %mul = mul i32 %6, -2048144777
  %7 = load i32, ptr %v1, align 4
  %add = add i32 %7, %mul
  store i32 %add, ptr %v1, align 4
  %8 = load i32, ptr %v1, align 4
  %call = call i32 @rol32(i32 noundef %8, i32 noundef 13)
  store i32 %call, ptr %v1, align 4
  %9 = load i32, ptr %v1, align 4
  %mul8 = mul i32 %9, -1640531535
  store i32 %mul8, ptr %v1, align 4
  %10 = load i32, ptr %b, align 4
  %mul9 = mul i32 %10, -2048144777
  %11 = load i32, ptr %v2, align 4
  %add10 = add i32 %11, %mul9
  store i32 %add10, ptr %v2, align 4
  %12 = load i32, ptr %v2, align 4
  %call11 = call i32 @rol32(i32 noundef %12, i32 noundef 13)
  store i32 %call11, ptr %v2, align 4
  %13 = load i32, ptr %v2, align 4
  %mul12 = mul i32 %13, -1640531535
  store i32 %mul12, ptr %v2, align 4
  %14 = load i32, ptr %c, align 4
  %mul13 = mul i32 %14, -2048144777
  %15 = load i32, ptr %v3, align 4
  %add14 = add i32 %15, %mul13
  store i32 %add14, ptr %v3, align 4
  %16 = load i32, ptr %v3, align 4
  %call15 = call i32 @rol32(i32 noundef %16, i32 noundef 13)
  store i32 %call15, ptr %v3, align 4
  %17 = load i32, ptr %v3, align 4
  %mul16 = mul i32 %17, -1640531535
  store i32 %mul16, ptr %v3, align 4
  %18 = load i32, ptr %d, align 4
  %mul17 = mul i32 %18, -2048144777
  %19 = load i32, ptr %v4, align 4
  %add18 = add i32 %19, %mul17
  store i32 %add18, ptr %v4, align 4
  %20 = load i32, ptr %v4, align 4
  %call19 = call i32 @rol32(i32 noundef %20, i32 noundef 13)
  store i32 %call19, ptr %v4, align 4
  %21 = load i32, ptr %v4, align 4
  %mul20 = mul i32 %21, -1640531535
  store i32 %mul20, ptr %v4, align 4
  %22 = load i32, ptr %v1, align 4
  %call21 = call i32 @rol32(i32 noundef %22, i32 noundef 1)
  %23 = load i32, ptr %v2, align 4
  %call22 = call i32 @rol32(i32 noundef %23, i32 noundef 7)
  %add23 = add i32 %call21, %call22
  %24 = load i32, ptr %v3, align 4
  %call24 = call i32 @rol32(i32 noundef %24, i32 noundef 12)
  %add25 = add i32 %add23, %call24
  %25 = load i32, ptr %v4, align 4
  %call26 = call i32 @rol32(i32 noundef %25, i32 noundef 18)
  %add27 = add i32 %add25, %call26
  store i32 %add27, ptr %h32, align 4
  %26 = load i32, ptr %h32, align 4
  %add28 = add i32 %26, 28
  store i32 %add28, ptr %h32, align 4
  %27 = load i32, ptr %e, align 4
  %mul29 = mul i32 %27, -1028477379
  %28 = load i32, ptr %h32, align 4
  %add30 = add i32 %28, %mul29
  store i32 %add30, ptr %h32, align 4
  %29 = load i32, ptr %h32, align 4
  %call31 = call i32 @rol32(i32 noundef %29, i32 noundef 17)
  %mul32 = mul i32 %call31, 668265263
  store i32 %mul32, ptr %h32, align 4
  %30 = load i32, ptr %f, align 4
  %mul33 = mul i32 %30, -1028477379
  %31 = load i32, ptr %h32, align 4
  %add34 = add i32 %31, %mul33
  store i32 %add34, ptr %h32, align 4
  %32 = load i32, ptr %h32, align 4
  %call35 = call i32 @rol32(i32 noundef %32, i32 noundef 17)
  %mul36 = mul i32 %call35, 668265263
  store i32 %mul36, ptr %h32, align 4
  %33 = load i32, ptr %g.addr, align 4
  %mul37 = mul i32 %33, -1028477379
  %34 = load i32, ptr %h32, align 4
  %add38 = add i32 %34, %mul37
  store i32 %add38, ptr %h32, align 4
  %35 = load i32, ptr %h32, align 4
  %call39 = call i32 @rol32(i32 noundef %35, i32 noundef 17)
  %mul40 = mul i32 %call39, 668265263
  store i32 %mul40, ptr %h32, align 4
  %36 = load i32, ptr %h.addr, align 4
  %mul41 = mul i32 %36, -1028477379
  %37 = load i32, ptr %h32, align 4
  %add42 = add i32 %37, %mul41
  store i32 %add42, ptr %h32, align 4
  %38 = load i32, ptr %h32, align 4
  %call43 = call i32 @rol32(i32 noundef %38, i32 noundef 17)
  %mul44 = mul i32 %call43, 668265263
  store i32 %mul44, ptr %h32, align 4
  %39 = load i32, ptr %h32, align 4
  %shr45 = lshr i32 %39, 15
  %40 = load i32, ptr %h32, align 4
  %xor = xor i32 %40, %shr45
  store i32 %xor, ptr %h32, align 4
  %41 = load i32, ptr %h32, align 4
  %mul46 = mul i32 %41, -2048144777
  store i32 %mul46, ptr %h32, align 4
  %42 = load i32, ptr %h32, align 4
  %shr47 = lshr i32 %42, 13
  %43 = load i32, ptr %h32, align 4
  %xor48 = xor i32 %43, %shr47
  store i32 %xor48, ptr %h32, align 4
  %44 = load i32, ptr %h32, align 4
  %mul49 = mul i32 %44, -1028477379
  store i32 %mul49, ptr %h32, align 4
  %45 = load i32, ptr %h32, align 4
  %shr50 = lshr i32 %45, 16
  %46 = load i32, ptr %h32, align 4
  %xor51 = xor i32 %46, %shr50
  store i32 %xor51, ptr %h32, align 4
  %47 = load i32, ptr %h32, align 4
  ret i32 %47
}

; Function Attrs: nounwind sspstrong uwtable
define internal i32 @qemu_xxhash2(i64 noundef %ab) #0 {
entry:
  %ab.addr = alloca i64, align 8
  store i64 %ab, ptr %ab.addr, align 8
  %0 = load i64, ptr %ab.addr, align 8
  %call = call i32 @qemu_xxhash8(i64 noundef %0, i64 noundef 0, i64 noundef 0, i32 noundef 0, i32 noundef 0)
  ret i32 %call
}

; Function Attrs: nounwind sspstrong uwtable
define dso_local void @qemu_plugin_add_dyn_cb_arr(ptr noundef %arr) #0 {
entry:
  %arr.addr = alloca ptr, align 8
  %hash = alloca i32, align 4
  %inserted = alloca i8, align 1
  store ptr %arr, ptr %arr.addr, align 8
  %0 = load ptr, ptr %arr.addr, align 8
  %1 = ptrtoint ptr %0 to i64
  %call = call i32 @qemu_xxhash2(i64 noundef %1)
  store i32 %call, ptr %hash, align 4
  %2 = load ptr, ptr %arr.addr, align 8
  %3 = load i32, ptr %hash, align 4
  %4 = getelementptr inbounds %struct.qemu_plugin_state, ptr @plugin, i32 0, i32 6
  %call1 = call zeroext i1 @qht_insert(ptr noundef %4, ptr noundef %2, i32 noundef %3, ptr noundef null)
  %frombool = zext i1 %call1 to i8
  store i8 %frombool, ptr %inserted, align 1
  br label %do.body

do.body:                                          ; preds = %entry
  %5 = load i8, ptr %inserted, align 1
  %tobool = trunc i8 %5 to i1
  br i1 %tobool, label %if.then, label %if.else

if.then:                                          ; preds = %do.body
  br label %if.end

if.else:                                          ; preds = %do.body
  call void @g_assertion_message_expr(ptr noundef null, ptr noundef @.str.3, i32 noundef 78, ptr noundef @__func__.qemu_plugin_add_dyn_cb_arr, ptr noundef @.str.4) #8
  unreachable

if.end:                                           ; preds = %if.then
  br label %do.end

do.end:                                           ; preds = %if.end
  ret void
}