; Function Attrs: nounwind sspstrong uwtable
define dso_local void @qemu_plugin_add_dyn_cb_arr(ptr noundef %arr) local_unnamed_addr #0 {
entry:
  %0 = ptrtoint ptr %arr to i64
  %conv.i.i = trunc i64 %0 to i32
  %shr.i.i = lshr i64 %0, 32
  %conv1.i.i = trunc nuw i64 %shr.i.i to i32
  %mul.i.i = mul i32 %conv.i.i, -2048144777
  %add.i.i = add i32 %mul.i.i, 606290985
  %or.i.i.i = tail call noundef i32 @llvm.fshl.i32(i32 %add.i.i, i32 %add.i.i, i32 13)
  %mul8.i.i = mul i32 %or.i.i.i, -1640531535
  %mul9.i.i = mul i32 %conv1.i.i, -2048144777
  %add10.i.i = add i32 %mul9.i.i, -2048144776
  %or.i33.i.i = tail call noundef i32 @llvm.fshl.i32(i32 %add10.i.i, i32 %add10.i.i, i32 13)
  %mul12.i.i = mul i32 %or.i33.i.i, -1640531535
  %or.i34.i.i = tail call noundef i32 @llvm.fshl.i32(i32 %mul8.i.i, i32 %mul8.i.i, i32 1)
  %or.i35.i.i = tail call noundef i32 @llvm.fshl.i32(i32 %mul12.i.i, i32 %mul12.i.i, i32 7)
  %add23.i.i = add i32 %or.i34.i.i, -207112720
  %add28.i.i = add i32 %add23.i.i, %or.i35.i.i
  %or.i38.i.i = tail call noundef i32 @llvm.fshl.i32(i32 %add28.i.i, i32 %add28.i.i, i32 17)
  %mul32.i.i = mul i32 %or.i38.i.i, 668265263
  %or.i39.i.i = tail call noundef i32 @llvm.fshl.i32(i32 %mul32.i.i, i32 %mul32.i.i, i32 17)
  %mul36.i.i = mul i32 %or.i39.i.i, 668265263
  %or.i40.i.i = tail call noundef i32 @llvm.fshl.i32(i32 %mul36.i.i, i32 %mul36.i.i, i32 17)
  %mul40.i.i = mul i32 %or.i40.i.i, 668265263
  %or.i41.i.i = tail call noundef i32 @llvm.fshl.i32(i32 %mul40.i.i, i32 %mul40.i.i, i32 17)
  %mul44.i.i = mul i32 %or.i41.i.i, 668265263
  %shr45.i.i = lshr i32 %mul44.i.i, 15
  %xor.i.i = xor i32 %shr45.i.i, %mul44.i.i
  %mul46.i.i = mul i32 %xor.i.i, -2048144777
  %shr47.i.i = lshr i32 %mul46.i.i, 13
  %xor48.i.i = xor i32 %shr47.i.i, %mul46.i.i
  %mul49.i.i = mul i32 %xor48.i.i, -1028477379
  %shr50.i.i = lshr i32 %mul49.i.i, 16
  %xor51.i.i = xor i32 %shr50.i.i, %mul49.i.i
  %call1 = tail call zeroext i1 @qht_insert(ptr noundef nonnull getelementptr inbounds nuw (i8, ptr @plugin, i64 160), ptr noundef %arr, i32 noundef %xor51.i.i, ptr noundef null) #11
  br i1 %call1, label %do.end, label %if.else

if.else:                                          ; preds = %entry
  tail call void @g_assertion_message_expr(ptr noundef null, ptr noundef nonnull @.str.3, i32 noundef 78, ptr noundef nonnull @__func__.qemu_plugin_add_dyn_cb_arr, ptr noundef nonnull @.str.4) #12
  unreachable

do.end:                                           ; preds = %entry
  ret void
}